target datalayout = "e-m:e-p270:32:32-p271:32:32-p272:64:64-i64:64-i128:128-f80:128-n8:16:32:64-S128"
target triple = "x86_64-pc-linux-gnu"

%struct.anon = type { ptr, i64 }

; Function Attrs: nounwind uwtable
define internal i32 @add_error_constants(ptr noundef %0) #0 {
  %2 = alloca i32, align 4
  %3 = alloca ptr, align 8
  %4 = alloca i32, align 4
  %5 = alloca i32, align 4
  %6 = alloca ptr, align 8
  %7 = alloca i64, align 8
  store ptr %0, ptr %3, align 8, !tbaa !15
  call void @llvm.lifetime.start.p0(i64 4, ptr %4) #6
  store i32 0, ptr %4, align 4, !tbaa !3
  br label %8

8:                                                ; preds = %37, %1
  %9 = load i32, ptr %4, align 4, !tbaa !3
  %10 = sext i32 %9 to i64
  %11 = getelementptr [106 x %struct.anon], ptr @error_codes, i64 0, i64 %10
  %12 = getelementptr inbounds nuw %struct.anon, ptr %11, i32 0, i32 0
  %13 = load ptr, ptr %12, align 16, !tbaa !7
  %14 = icmp ne ptr %13, null
  br i1 %14, label %16, label %15

15:                                               ; preds = %8
  store i32 2, ptr %5, align 4
  br label %40

16:                                               ; preds = %8
  call void @llvm.lifetime.start.p0(i64 8, ptr %6) #6
  %17 = load i32, ptr %4, align 4, !tbaa !3
  %18 = sext i32 %17 to i64
  %19 = getelementptr [106 x %struct.anon], ptr @error_codes, i64 0, i64 %18
  %20 = getelementptr inbounds nuw %struct.anon, ptr %19, i32 0, i32 0
  %21 = load ptr, ptr %20, align 16, !tbaa !7
  store ptr %21, ptr %6, align 8, !tbaa !45
  call void @llvm.lifetime.start.p0(i64 8, ptr %7) #6
  %22 = load i32, ptr %4, align 4, !tbaa !3
  %23 = sext i32 %22 to i64
  %24 = getelementptr [106 x %struct.anon], ptr @error_codes, i64 0, i64 %23
  %25 = getelementptr inbounds nuw %struct.anon, ptr %24, i32 0, i32 1
  %26 = load i64, ptr %25, align 8, !tbaa !12
  store i64 %26, ptr %7, align 8, !tbaa !44
  %27 = load ptr, ptr %3, align 8, !tbaa !15
  %28 = load ptr, ptr %6, align 8, !tbaa !45
  %29 = load i64, ptr %7, align 8, !tbaa !44
  %30 = call i32 @PyModule_AddIntConstant(ptr noundef %27, ptr noundef %28, i64 noundef %29)
  %31 = icmp slt i32 %30, 0
  br i1 %31, label %32, label %33

32:                                               ; preds = %16
  store i32 -1, ptr %2, align 4
  store i32 1, ptr %5, align 4
  br label %34

33:                                               ; preds = %16
  store i32 0, ptr %5, align 4
  br label %34

34:                                               ; preds = %33, %32
  call void @llvm.lifetime.end.p0(i64 8, ptr %7) #6
  call void @llvm.lifetime.end.p0(i64 8, ptr %6) #6
  %35 = load i32, ptr %5, align 4
  switch i32 %35, label %40 [
    i32 0, label %36
  ]

36:                                               ; preds = %34
  br label %37

37:                                               ; preds = %36
  %38 = load i32, ptr %4, align 4, !tbaa !3
  %39 = add i32 %38, 1
  store i32 %39, ptr %4, align 4, !tbaa !3
  br label %8, !llvm.loop !68

40:                                               ; preds = %34, %15
  call void @llvm.lifetime.end.p0(i64 4, ptr %4) #6
  %41 = load i32, ptr %5, align 4
  switch i32 %41, label %45 [
    i32 2, label %42
    i32 1, label %43
  ]

42:                                               ; preds = %40
  store i32 0, ptr %2, align 4
  br label %43

43:                                               ; preds = %42, %40
  %44 = load i32, ptr %2, align 4
  ret i32 %44

45:                                               ; preds = %40
  unreachable
}