; Function Attrs: nounwind uwtable
define internal fastcc range(i32 -1, 1) i32 @add_error_constants(ptr noundef %0) unnamed_addr #2 {
  br label %7

2:                                                ; preds = %7
  %3 = add i32 %.0913, 1
  %4 = sext i32 %3 to i64
  %5 = getelementptr [106 x %struct.anon], ptr @error_codes, i64 0, i64 %4
  %6 = load ptr, ptr %5, align 16, !tbaa !3
  %.not.not = icmp eq ptr %6, null
  br i1 %.not.not, label %14, label %7, !llvm.loop !61

7:                                                ; preds = %1, %2
  %8 = phi ptr [ @.str.1, %1 ], [ %6, %2 ]
  %9 = phi ptr [ @error_codes, %1 ], [ %5, %2 ]
  %.0913 = phi i32 [ 0, %1 ], [ %3, %2 ]
  %10 = getelementptr inbounds nuw i8, ptr %9, i64 8
  %11 = load i64, ptr %10, align 8, !tbaa !12
  %12 = tail call i32 @PyModule_AddIntConstant(ptr noundef %0, ptr noundef nonnull %8, i64 noundef %11) #5
  %13 = icmp slt i32 %12, 0
  br i1 %13, label %14, label %2

14:                                               ; preds = %2, %7
  %.lobit = ashr i32 %12, 31
  ret i32 %.lobit
}